; Function Attrs: mustprogress uwtable
define void @_ZNK6casadi8Sparsify8generateERNS_13CodeGeneratorERKSt6vectorIxSaIxEES7_(ptr noundef nonnull align 8 dereferenceable(64) %0, ptr noundef nonnull align 8 dereferenceable(3097) %1, ptr nocapture noundef nonnull readonly align 8 dereferenceable(24) %2, ptr nocapture noundef nonnull readonly align 8 dereferenceable(24) %3) unnamed_addr #3 align 2 personality ptr @__gxx_personality_v0 {
  %5 = alloca %"class.std::__cxx11::basic_string", align 8
  %6 = alloca %"class.std::__cxx11::basic_string", align 8
  %7 = alloca %"class.std::__cxx11::basic_string", align 8
  %8 = getelementptr inbounds i8, ptr %0, i64 32
  %9 = getelementptr inbounds i8, ptr %0, i64 40
  %10 = load ptr, ptr %9, align 8
  %11 = load ptr, ptr %8, align 8
  %.not.i.i.i.not = icmp eq ptr %10, %11
  br i1 %.not.i.i.i.not, label %12, label %_ZNK6casadi6MXNode3depEx.exit

12:                                               ; preds = %4
  tail call void (ptr, ...) @_ZSt24__throw_out_of_range_fmtPKcz(ptr noundef nonnull @.str.10, i64 noundef 0, i64 noundef 0) #17
  unreachable

_ZNK6casadi6MXNode3depEx.exit:                    ; preds = %4
  %13 = load ptr, ptr %2, align 8
  %14 = load i64, ptr %13, align 8
  %15 = tail call noundef nonnull align 8 dereferenceable(8) ptr @_ZNK6casadi2MX8sparsityEv(ptr noundef nonnull align 8 dereferenceable(8) %11)
  %16 = tail call noundef i64 @_ZNK6casadi8Sparsity3nnzEv(ptr noundef nonnull align 8 dereferenceable(8) %15)
  call void @_ZNK6casadi13CodeGenerator4workB5cxx11Exx(ptr dead_on_unwind nonnull writable sret(%"class.std::__cxx11::basic_string") align 8 %6, ptr noundef nonnull align 8 dereferenceable(3097) %1, i64 noundef %14, i64 noundef %16)
  %17 = load ptr, ptr %3, align 8
  %18 = load i64, ptr %17, align 8
  %19 = load ptr, ptr %0, align 8
  %20 = getelementptr inbounds i8, ptr %19, i64 352
  %21 = load ptr, ptr %20, align 8
  %22 = invoke noundef nonnull align 8 dereferenceable(8) ptr %21(ptr noundef nonnull align 8 dereferenceable(64) %0, i64 noundef 0)
          to label %.noexc unwind label %31

.noexc:                                           ; preds = %_ZNK6casadi6MXNode3depEx.exit
  %23 = invoke noundef i64 @_ZNK6casadi8Sparsity3nnzEv(ptr noundef nonnull align 8 dereferenceable(8) %22)
          to label %_ZNK6casadi6MXNode3nnzEx.exit unwind label %31

_ZNK6casadi6MXNode3nnzEx.exit:                    ; preds = %.noexc
  invoke void @_ZNK6casadi13CodeGenerator4workB5cxx11Exx(ptr dead_on_unwind nonnull writable sret(%"class.std::__cxx11::basic_string") align 8 %7, ptr noundef nonnull align 8 dereferenceable(3097) %1, i64 noundef %18, i64 noundef %23)
          to label %24 unwind label %31

24:                                               ; preds = %_ZNK6casadi6MXNode3nnzEx.exit
  %25 = getelementptr inbounds i8, ptr %0, i64 56
  invoke void @_ZN6casadi13CodeGenerator8sparsifyERKNSt7__cxx1112basic_stringIcSt11char_traitsIcESaIcEEES8_RKNS_8SparsityEb(ptr dead_on_unwind nonnull writable sret(%"class.std::__cxx11::basic_string") align 8 %5, ptr noundef nonnull align 8 dereferenceable(3097) %1, ptr noundef nonnull align 8 dereferenceable(32) %6, ptr noundef nonnull align 8 dereferenceable(32) %7, ptr noundef nonnull align 8 dereferenceable(8) %25, i1 noundef zeroext false)
          to label %26 unwind label %33

26:                                               ; preds = %24
  %27 = invoke noundef nonnull align 8 dereferenceable(3097) ptr @_ZN6casadi13CodeGeneratorlsERKNSt7__cxx1112basic_stringIcSt11char_traitsIcESaIcEEE(ptr noundef nonnull align 8 dereferenceable(3097) %1, ptr noundef nonnull align 8 dereferenceable(32) %5)
          to label %28 unwind label %35

28:                                               ; preds = %26
  %29 = invoke noundef nonnull align 8 dereferenceable(3097) ptr @_ZN6casadi13CodeGeneratorlsIPKcEERS0_T_(ptr noundef nonnull align 8 dereferenceable(3097) %27, ptr noundef nonnull @.str.4)
          to label %30 unwind label %35

30:                                               ; preds = %28
  call void @_ZNSt7__cxx1112basic_stringIcSt11char_traitsIcESaIcEED1Ev(ptr noundef nonnull align 8 dereferenceable(32) %5) #16
  call void @_ZNSt7__cxx1112basic_stringIcSt11char_traitsIcESaIcEED1Ev(ptr noundef nonnull align 8 dereferenceable(32) %7) #16
  call void @_ZNSt7__cxx1112basic_stringIcSt11char_traitsIcESaIcEED1Ev(ptr noundef nonnull align 8 dereferenceable(32) %6) #16
  ret void

31:                                               ; preds = %.noexc, %_ZNK6casadi6MXNode3depEx.exit, %_ZNK6casadi6MXNode3nnzEx.exit
  %32 = landingpad { ptr, i32 }
          cleanup
  br label %38

33:                                               ; preds = %24
  %34 = landingpad { ptr, i32 }
          cleanup
  br label %37

35:                                               ; preds = %28, %26
  %36 = landingpad { ptr, i32 }
          cleanup
  call void @_ZNSt7__cxx1112basic_stringIcSt11char_traitsIcESaIcEED1Ev(ptr noundef nonnull align 8 dereferenceable(32) %5) #16
  br label %37

37:                                               ; preds = %35, %33
  %.pn = phi { ptr, i32 } [ %36, %35 ], [ %34, %33 ]
  call void @_ZNSt7__cxx1112basic_stringIcSt11char_traitsIcESaIcEED1Ev(ptr noundef nonnull align 8 dereferenceable(32) %7) #16
  br label %38

38:                                               ; preds = %37, %31
  %.pn.pn = phi { ptr, i32 } [ %.pn, %37 ], [ %32, %31 ]
  call void @_ZNSt7__cxx1112basic_stringIcSt11char_traitsIcESaIcEED1Ev(ptr noundef nonnull align 8 dereferenceable(32) %6) #16
  resume { ptr, i32 } %.pn.pn
}